target datalayout = "e-m:e-p270:32:32-p271:32:32-p272:64:64-i64:64-i128:128-f80:128-n8:16:32:64-S128"
target triple = "x86_64-pc-linux-gnu"

%struct.cmsysProcess_s = type { ptr, i32, [3 x i32], [3 x i32], i32, [1024 x i8], ptr, i32, double, ptr, i32, i32, i32, i32, i32, %struct.kwsysProcessTime_s, %struct.kwsysProcessTime_s, i32, i32, %struct.fd_set, i32, i32, i32, [1025 x i8], ptr, ptr, ptr, ptr, ptr, i32, i32, i32, [2 x i32], [2 x i32], [2 x i32], i32, ptr }
%struct.kwsysProcessTime_s = type { i64, i64 }
%struct.fd_set = type { [16 x i64] }

; Function Attrs: nounwind uwtable
define dso_local void @cmsysProcess_Interrupt(ptr noundef %0) #0 {
  %2 = alloca ptr, align 8
  %3 = alloca i32, align 4
  %4 = alloca i32, align 4
  store ptr %0, ptr %2, align 8, !tbaa !4
  call void @llvm.lifetime.start.p0(i64 4, ptr %3) #11
  %5 = load ptr, ptr %2, align 8, !tbaa !4
  %6 = icmp ne ptr %5, null
  br i1 %6, label %7, label %22

7:                                                ; preds = %1
  %8 = load ptr, ptr %2, align 8, !tbaa !4
  %9 = getelementptr inbounds nuw %struct.cmsysProcess_s, ptr %8, i32 0, i32 21
  %10 = load volatile i32, ptr %9, align 4, !tbaa !21
  %11 = icmp ne i32 %10, 3
  br i1 %11, label %22, label %12

12:                                               ; preds = %7
  %13 = load ptr, ptr %2, align 8, !tbaa !4
  %14 = getelementptr inbounds nuw %struct.cmsysProcess_s, ptr %13, i32 0, i32 17
  %15 = load i32, ptr %14, align 8, !tbaa !25
  %16 = icmp ne i32 %15, 0
  br i1 %16, label %22, label %17

17:                                               ; preds = %12
  %18 = load ptr, ptr %2, align 8, !tbaa !4
  %19 = getelementptr inbounds nuw %struct.cmsysProcess_s, ptr %18, i32 0, i32 22
  %20 = load volatile i32, ptr %19, align 8, !tbaa !26
  %21 = icmp ne i32 %20, 0
  br i1 %21, label %22, label %23

22:                                               ; preds = %17, %12, %7, %1
  store i32 1, ptr %4, align 4
  br label %68

23:                                               ; preds = %17
  %24 = load ptr, ptr %2, align 8, !tbaa !4
  %25 = getelementptr inbounds nuw %struct.cmsysProcess_s, ptr %24, i32 0, i32 14
  %26 = load volatile i32, ptr %25, align 8, !tbaa !61
  %27 = icmp ne i32 %26, 0
  br i1 %27, label %28, label %65

28:                                               ; preds = %23
  %29 = load ptr, ptr %2, align 8, !tbaa !4
  %30 = getelementptr inbounds nuw %struct.cmsysProcess_s, ptr %29, i32 0, i32 6
  %31 = load volatile ptr, ptr %30, align 8, !tbaa !87
  %32 = icmp ne ptr %31, null
  br i1 %32, label %33, label %64

33:                                               ; preds = %28
  store i32 0, ptr %3, align 4, !tbaa !20
  br label %34

34:                                               ; preds = %60, %33
  %35 = load i32, ptr %3, align 4, !tbaa !20
  %36 = load ptr, ptr %2, align 8, !tbaa !4
  %37 = getelementptr inbounds nuw %struct.cmsysProcess_s, ptr %36, i32 0, i32 1
  %38 = load volatile i32, ptr %37, align 8, !tbaa !32
  %39 = icmp slt i32 %35, %38
  br i1 %39, label %40, label %63

40:                                               ; preds = %34
  %41 = load ptr, ptr %2, align 8, !tbaa !4
  %42 = getelementptr inbounds nuw %struct.cmsysProcess_s, ptr %41, i32 0, i32 6
  %43 = load volatile ptr, ptr %42, align 8, !tbaa !87
  %44 = load i32, ptr %3, align 4, !tbaa !20
  %45 = sext i32 %44 to i64
  %46 = getelementptr inbounds i32, ptr %43, i64 %45
  %47 = load volatile i32, ptr %46, align 4, !tbaa !20
  %48 = icmp ne i32 %47, 0
  br i1 %48, label %49, label %59

49:                                               ; preds = %40
  %50 = load ptr, ptr %2, align 8, !tbaa !4
  %51 = getelementptr inbounds nuw %struct.cmsysProcess_s, ptr %50, i32 0, i32 6
  %52 = load volatile ptr, ptr %51, align 8, !tbaa !87
  %53 = load i32, ptr %3, align 4, !tbaa !20
  %54 = sext i32 %53 to i64
  %55 = getelementptr inbounds i32, ptr %52, i64 %54
  %56 = load volatile i32, ptr %55, align 4, !tbaa !20
  %57 = sub nsw i32 0, %56
  %58 = call i32 @kill(i32 noundef %57, i32 noundef 2) #11
  br label %59

59:                                               ; preds = %49, %40
  br label %60

60:                                               ; preds = %59
  %61 = load i32, ptr %3, align 4, !tbaa !20
  %62 = add nsw i32 %61, 1
  store i32 %62, ptr %3, align 4, !tbaa !20
  br label %34, !llvm.loop !143

63:                                               ; preds = %34
  br label %64

64:                                               ; preds = %63, %28
  br label %67

65:                                               ; preds = %23
  %66 = call i32 @kill(i32 noundef 0, i32 noundef 2) #11
  br label %67

67:                                               ; preds = %65, %64
  store i32 0, ptr %4, align 4
  br label %68

68:                                               ; preds = %67, %22
  call void @llvm.lifetime.end.p0(i64 4, ptr %3) #11
  %69 = load i32, ptr %4, align 4
  switch i32 %69, label %71 [
    i32 0, label %70
    i32 1, label %70
  ]

70:                                               ; preds = %68, %68
  ret void

71:                                               ; preds = %68
  unreachable
}