; Function Attrs: nounwind uwtable
define dso_local void @cmsysProcess_Interrupt(ptr noundef %0) local_unnamed_addr #4 {
  %.not = icmp eq ptr %0, null
  br i1 %.not, label %.loopexit, label %2

2:                                                ; preds = %1
  %3 = getelementptr inbounds nuw i8, ptr %0, i64 1292
  %4 = load volatile i32, ptr %3, align 4, !tbaa !18
  %.not13 = icmp eq i32 %4, 3
  br i1 %.not13, label %5, label %.loopexit

5:                                                ; preds = %2
  %6 = getelementptr inbounds nuw i8, ptr %0, i64 1152
  %7 = load i32, ptr %6, align 8, !tbaa !20
  %.not14 = icmp eq i32 %7, 0
  br i1 %.not14, label %8, label %.loopexit

8:                                                ; preds = %5
  %9 = getelementptr inbounds nuw i8, ptr %0, i64 1296
  %10 = load volatile i32, ptr %9, align 8, !tbaa !21
  %.not15 = icmp eq i32 %10, 0
  br i1 %.not15, label %11, label %.loopexit

11:                                               ; preds = %8
  %12 = getelementptr inbounds nuw i8, ptr %0, i64 1112
  %13 = load volatile i32, ptr %12, align 8, !tbaa !53
  %.not16 = icmp eq i32 %13, 0
  br i1 %.not16, label %33, label %14

14:                                               ; preds = %11
  %15 = getelementptr inbounds nuw i8, ptr %0, i64 1064
  %16 = load volatile ptr, ptr %15, align 8, !tbaa !55
  %.not17 = icmp eq ptr %16, null
  br i1 %.not17, label %.loopexit, label %.preheader

.preheader:                                       ; preds = %14
  %17 = getelementptr inbounds nuw i8, ptr %0, i64 8
  %18 = load volatile i32, ptr %17, align 8, !tbaa !22
  %19 = icmp sgt i32 %18, 0
  br i1 %19, label %.lr.ph, label %.loopexit

.lr.ph:                                           ; preds = %.preheader, %29
  %indvars.iv = phi i64 [ %indvars.iv.next, %29 ], [ 0, %.preheader ]
  %20 = load volatile ptr, ptr %15, align 8, !tbaa !55
  %21 = getelementptr inbounds nuw i32, ptr %20, i64 %indvars.iv
  %22 = load volatile i32, ptr %21, align 4, !tbaa !35
  %.not18 = icmp eq i32 %22, 0
  br i1 %.not18, label %29, label %23

23:                                               ; preds = %.lr.ph
  %24 = load volatile ptr, ptr %15, align 8, !tbaa !55
  %25 = getelementptr inbounds nuw i32, ptr %24, i64 %indvars.iv
  %26 = load volatile i32, ptr %25, align 4, !tbaa !35
  %27 = sub nsw i32 0, %26
  %28 = tail call i32 @kill(i32 noundef %27, i32 noundef 2) #25
  br label %29

29:                                               ; preds = %.lr.ph, %23
  %indvars.iv.next = add nuw nsw i64 %indvars.iv, 1
  %30 = load volatile i32, ptr %17, align 8, !tbaa !22
  %31 = sext i32 %30 to i64
  %32 = icmp slt i64 %indvars.iv.next, %31
  br i1 %32, label %.lr.ph, label %.loopexit, !llvm.loop !125

33:                                               ; preds = %11
  %34 = tail call i32 @kill(i32 noundef 0, i32 noundef 2) #25
  br label %.loopexit

.loopexit:                                        ; preds = %29, %.preheader, %33, %14, %1, %2, %5, %8
  ret void
}